target datalayout = "e-m:e-p270:32:32-p271:32:32-p272:64:64-i64:64-i128:128-f80:128-n8:16:32:64-S128"
target triple = "x86_64-pc-linux-gnu"

%struct.ASN1_ITEM_st = type { i8, i64, ptr, i64, ptr, i64, ptr }

@.str.2 = private unnamed_addr constant [32 x i8] c"../openssl/crypto/asn1/x_long.c\00", align 1
@__func__.long_c2i = private unnamed_addr constant [9 x i8] c"long_c2i\00", align 1

; Function Attrs: nounwind uwtable
define internal i32 @long_c2i(ptr noundef %0, ptr noundef %1, i32 noundef %2, i32 noundef %3, ptr noundef %4, ptr noundef %5) #0 {
  %7 = alloca i32, align 4
  %8 = alloca ptr, align 8
  %9 = alloca ptr, align 8
  %10 = alloca i32, align 4
  %11 = alloca i32, align 4
  %12 = alloca ptr, align 8
  %13 = alloca ptr, align 8
  %14 = alloca i32, align 4
  %15 = alloca i64, align 8
  %16 = alloca i64, align 8
  %17 = alloca i64, align 8
  %18 = alloca i32, align 4
  store ptr %0, ptr %8, align 8, !tbaa !3
  store ptr %1, ptr %9, align 8, !tbaa !10
  store i32 %2, ptr %10, align 4, !tbaa !12
  store i32 %3, ptr %11, align 4, !tbaa !12
  store ptr %4, ptr %12, align 8, !tbaa !10
  store ptr %5, ptr %13, align 8, !tbaa !8
  call void @llvm.lifetime.start.p0(i64 4, ptr %14) #4
  call void @llvm.lifetime.start.p0(i64 8, ptr %15) #4
  call void @llvm.lifetime.start.p0(i64 8, ptr %16) #4
  store i64 0, ptr %16, align 8, !tbaa !14
  call void @llvm.lifetime.start.p0(i64 8, ptr %17) #4
  store i64 256, ptr %17, align 8, !tbaa !14
  %19 = load i32, ptr %10, align 4, !tbaa !12
  %20 = icmp sgt i32 %19, 1
  br i1 %20, label %21, label %37

21:                                               ; preds = %6
  %22 = load ptr, ptr %9, align 8, !tbaa !10
  %23 = getelementptr inbounds i8, ptr %22, i64 0
  %24 = load i8, ptr %23, align 1, !tbaa !16
  %25 = zext i8 %24 to i32
  switch i32 %25, label %36 [
    i32 255, label %26
    i32 0, label %31
  ]

26:                                               ; preds = %21
  %27 = load ptr, ptr %9, align 8, !tbaa !10
  %28 = getelementptr inbounds nuw i8, ptr %27, i32 1
  store ptr %28, ptr %9, align 8, !tbaa !10
  %29 = load i32, ptr %10, align 4, !tbaa !12
  %30 = add nsw i32 %29, -1
  store i32 %30, ptr %10, align 4, !tbaa !12
  store i64 255, ptr %17, align 8, !tbaa !14
  br label %36

31:                                               ; preds = %21
  %32 = load ptr, ptr %9, align 8, !tbaa !10
  %33 = getelementptr inbounds nuw i8, ptr %32, i32 1
  store ptr %33, ptr %9, align 8, !tbaa !10
  %34 = load i32, ptr %10, align 4, !tbaa !12
  %35 = add nsw i32 %34, -1
  store i32 %35, ptr %10, align 4, !tbaa !12
  store i64 0, ptr %17, align 8, !tbaa !14
  br label %36

36:                                               ; preds = %21, %31, %26
  br label %37

37:                                               ; preds = %36, %6
  %38 = load i32, ptr %10, align 4, !tbaa !12
  %39 = icmp sgt i32 %38, 8
  br i1 %39, label %40, label %41

40:                                               ; preds = %37
  call void @ERR_new()
  call void @ERR_set_debug(ptr noundef @.str.2, i32 noundef 155, ptr noundef @__func__.long_c2i)
  call void (i32, i32, ptr, ...) @ERR_set_error(i32 noundef 13, i32 noundef 128, ptr noundef null)
  store i32 0, ptr %7, align 4
  store i32 1, ptr %18, align 4
  br label %110

41:                                               ; preds = %37
  %42 = load i64, ptr %17, align 8, !tbaa !14
  %43 = icmp eq i64 %42, 256
  br i1 %43, label %44, label %57

44:                                               ; preds = %41
  %45 = load i32, ptr %10, align 4, !tbaa !12
  %46 = icmp ne i32 %45, 0
  br i1 %46, label %47, label %55

47:                                               ; preds = %44
  %48 = load ptr, ptr %9, align 8, !tbaa !10
  %49 = getelementptr inbounds i8, ptr %48, i64 0
  %50 = load i8, ptr %49, align 1, !tbaa !16
  %51 = zext i8 %50 to i32
  %52 = and i32 %51, 128
  %53 = icmp ne i32 %52, 0
  br i1 %53, label %54, label %55

54:                                               ; preds = %47
  store i64 255, ptr %17, align 8, !tbaa !14
  br label %56

55:                                               ; preds = %47, %44
  store i64 0, ptr %17, align 8, !tbaa !14
  br label %56

56:                                               ; preds = %55, %54
  br label %68

57:                                               ; preds = %41
  %58 = load i64, ptr %17, align 8, !tbaa !14
  %59 = load ptr, ptr %9, align 8, !tbaa !10
  %60 = getelementptr inbounds i8, ptr %59, i64 0
  %61 = load i8, ptr %60, align 1, !tbaa !16
  %62 = zext i8 %61 to i64
  %63 = xor i64 %58, %62
  %64 = and i64 %63, 128
  %65 = icmp eq i64 %64, 0
  br i1 %65, label %66, label %67

66:                                               ; preds = %57
  call void @ERR_new()
  call void @ERR_set_debug(ptr noundef @.str.2, i32 noundef 166, ptr noundef @__func__.long_c2i)
  call void (i32, i32, ptr, ...) @ERR_set_error(i32 noundef 13, i32 noundef 221, ptr noundef null)
  store i32 0, ptr %7, align 4
  store i32 1, ptr %18, align 4
  br label %110

67:                                               ; preds = %57
  br label %68

68:                                               ; preds = %67, %56
  store i64 0, ptr %16, align 8, !tbaa !14
  store i32 0, ptr %14, align 4, !tbaa !12
  br label %69

69:                                               ; preds = %86, %68
  %70 = load i32, ptr %14, align 4, !tbaa !12
  %71 = load i32, ptr %10, align 4, !tbaa !12
  %72 = icmp slt i32 %70, %71
  br i1 %72, label %73, label %89

73:                                               ; preds = %69
  %74 = load i64, ptr %16, align 8, !tbaa !14
  %75 = shl i64 %74, 8
  store i64 %75, ptr %16, align 8, !tbaa !14
  %76 = load ptr, ptr %9, align 8, !tbaa !10
  %77 = load i32, ptr %14, align 4, !tbaa !12
  %78 = sext i32 %77 to i64
  %79 = getelementptr inbounds i8, ptr %76, i64 %78
  %80 = load i8, ptr %79, align 1, !tbaa !16
  %81 = zext i8 %80 to i64
  %82 = load i64, ptr %17, align 8, !tbaa !14
  %83 = xor i64 %81, %82
  %84 = load i64, ptr %16, align 8, !tbaa !14
  %85 = or i64 %84, %83
  store i64 %85, ptr %16, align 8, !tbaa !14
  br label %86

86:                                               ; preds = %73
  %87 = load i32, ptr %14, align 4, !tbaa !12
  %88 = add nsw i32 %87, 1
  store i32 %88, ptr %14, align 4, !tbaa !12
  br label %69, !llvm.loop !17

89:                                               ; preds = %69
  %90 = load i64, ptr %16, align 8, !tbaa !14
  store i64 %90, ptr %15, align 8, !tbaa !14
  %91 = load i64, ptr %15, align 8, !tbaa !14
  %92 = icmp slt i64 %91, 0
  br i1 %92, label %93, label %94

93:                                               ; preds = %89
  call void @ERR_new()
  call void @ERR_set_debug(ptr noundef @.str.2, i32 noundef 176, ptr noundef @__func__.long_c2i)
  call void (i32, i32, ptr, ...) @ERR_set_error(i32 noundef 13, i32 noundef 128, ptr noundef null)
  store i32 0, ptr %7, align 4
  store i32 1, ptr %18, align 4
  br label %110

94:                                               ; preds = %89
  %95 = load i64, ptr %17, align 8, !tbaa !14
  %96 = icmp ne i64 %95, 0
  br i1 %96, label %97, label %101

97:                                               ; preds = %94
  %98 = load i64, ptr %15, align 8, !tbaa !14
  %99 = sub nsw i64 0, %98
  %100 = sub nsw i64 %99, 1
  store i64 %100, ptr %15, align 8, !tbaa !14
  br label %101

101:                                              ; preds = %97, %94
  %102 = load i64, ptr %15, align 8, !tbaa !14
  %103 = load ptr, ptr %13, align 8, !tbaa !8
  %104 = getelementptr inbounds nuw %struct.ASN1_ITEM_st, ptr %103, i32 0, i32 5
  %105 = load i64, ptr %104, align 8, !tbaa !19
  %106 = icmp eq i64 %102, %105
  br i1 %106, label %107, label %108

107:                                              ; preds = %101
  call void @ERR_new()
  call void @ERR_set_debug(ptr noundef @.str.2, i32 noundef 182, ptr noundef @__func__.long_c2i)
  call void (i32, i32, ptr, ...) @ERR_set_error(i32 noundef 13, i32 noundef 128, ptr noundef null)
  store i32 0, ptr %7, align 4
  store i32 1, ptr %18, align 4
  br label %110

108:                                              ; preds = %101
  %109 = load ptr, ptr %8, align 8, !tbaa !3
  call void @llvm.memcpy.p0.p0.i64(ptr align 8 %109, ptr align 8 %15, i64 8, i1 false)
  store i32 1, ptr %7, align 4
  store i32 1, ptr %18, align 4
  br label %110

110:                                              ; preds = %108, %107, %93, %66, %40
  call void @llvm.lifetime.end.p0(i64 8, ptr %17) #4
  call void @llvm.lifetime.end.p0(i64 8, ptr %16) #4
  call void @llvm.lifetime.end.p0(i64 8, ptr %15) #4
  call void @llvm.lifetime.end.p0(i64 4, ptr %14) #4
  %111 = load i32, ptr %7, align 4
  ret i32 %111
}